; Function Attrs: mustprogress nounwind uwtable
define dso_local void @_ZN4llvm14CombinerHelper23replaceInstWithConstantERNS_12MachineInstrENS_5APIntE(ptr nocapture noundef nonnull readonly align 8 dereferenceable(72) %0, ptr noundef nonnull align 8 dereferenceable(70) %1, ptr noundef nonnull %2) local_unnamed_addr #0 align 2 {
  %4 = alloca %"class.llvm::DstOp", align 8
  %5 = load ptr, ptr %0, align 8
  %6 = getelementptr inbounds nuw i8, ptr %1, i64 32
  %7 = load ptr, ptr %6, align 8
  %8 = getelementptr inbounds nuw i8, ptr %7, i64 4
  %9 = load i32, ptr %8, align 4
  store i32 %9, ptr %4, align 8
  %10 = getelementptr inbounds nuw i8, ptr %4, i64 8
  store i32 1, ptr %10, align 8
  %11 = call { ptr, ptr } @_ZN4llvm16MachineIRBuilder13buildConstantERKNS_5DstOpERKNS_5APIntE(ptr noundef nonnull align 8 dereferenceable(88) %5, ptr noundef nonnull align 8 dereferenceable(12) %4, ptr noundef nonnull align 8 dereferenceable(12) %2) #27
  call void @_ZN4llvm12MachineInstr15eraseFromParentEv(ptr noundef nonnull align 8 dereferenceable(70) %1) #27
  ret void
}